
_ioProcTester:     file format elf32-i386


Disassembly of section .text:

00000000 <main>:
#include "types.h"
#include "stat.h"
#include "user.h"

int
main(int argv, char* argc[]){
   0:	8d 4c 24 04          	lea    0x4(%esp),%ecx
   4:	83 e4 f0             	and    $0xfffffff0,%esp
   7:	ff 71 fc             	push   -0x4(%ecx)
   a:	55                   	push   %ebp
   b:	89 e5                	mov    %esp,%ebp
   d:	57                   	push   %edi
   e:	56                   	push   %esi
   f:	53                   	push   %ebx
  10:	51                   	push   %ecx
  11:	83 ec 28             	sub    $0x28,%esp

	if(argv<2){
  14:	83 39 01             	cmpl   $0x1,(%ecx)
main(int argv, char* argc[]){
  17:	8b 41 04             	mov    0x4(%ecx),%eax
	if(argv<2){
  1a:	7e 3a                	jle    56 <main+0x56>
		printf(1, "Incorrect format!\nFormat: test_cpu_only <number of fork processes>\n");

		exit();
	}

	int n=atoi(argc[1]);
  1c:	83 ec 0c             	sub    $0xc,%esp
  1f:	ff 70 04             	push   0x4(%eax)
  22:	e8 59 03 00 00       	call   380 <atoi>

	int burst_times[n];
  27:	83 c4 10             	add    $0x10,%esp
	int n=atoi(argc[1]);
  2a:	89 45 d4             	mov    %eax,-0x2c(%ebp)
	int burst_times[n];
  2d:	8d 04 85 0f 00 00 00 	lea    0xf(,%eax,4),%eax
  34:	89 e1                	mov    %esp,%ecx
  36:	89 c2                	mov    %eax,%edx
  38:	25 00 f0 ff ff       	and    $0xfffff000,%eax
  3d:	83 e2 f0             	and    $0xfffffff0,%edx
  40:	29 c1                	sub    %eax,%ecx
  42:	39 cc                	cmp    %ecx,%esp
  44:	74 23                	je     69 <main+0x69>
  46:	81 ec 00 10 00 00    	sub    $0x1000,%esp
  4c:	83 8c 24 fc 0f 00 00 	orl    $0x0,0xffc(%esp)
  53:	00 
  54:	eb ec                	jmp    42 <main+0x42>
		printf(1, "Incorrect format!\nFormat: test_cpu_only <number of fork processes>\n");
  56:	51                   	push   %ecx
  57:	51                   	push   %ecx
  58:	68 d8 0a 00 00       	push   $0xad8
  5d:	6a 01                	push   $0x1
  5f:	e8 1c 05 00 00       	call   580 <printf>
		exit();
  64:	e8 8a 03 00 00       	call   3f3 <exit>
	int burst_times[n];
  69:	81 e2 ff 0f 00 00    	and    $0xfff,%edx
  6f:	29 d4                	sub    %edx,%esp
  71:	85 d2                	test   %edx,%edx
  73:	74 05                	je     7a <main+0x7a>
  75:	83 4c 14 fc 00       	orl    $0x0,-0x4(%esp,%edx,1)

	for(int i=0;i<n;i++){
  7a:	83 7d d4 00          	cmpl   $0x0,-0x2c(%ebp)
	int burst_times[n];
  7e:	89 e6                	mov    %esp,%esi
	for(int i=0;i<n;i++){
  80:	0f 8e c9 00 00 00    	jle    14f <main+0x14f>
  86:	31 db                	xor    %ebx,%ebx
  88:	8d b4 26 00 00 00 00 	lea    0x0(%esi,%eiz,1),%esi
  8f:	90                   	nop
		burst_times[i] = randomrange(1,20);
  90:	83 ec 08             	sub    $0x8,%esp
  93:	89 df                	mov    %ebx,%edi
  95:	6a 14                	push   $0x14
  97:	6a 01                	push   $0x1
  99:	e8 f2 09 00 00       	call   a90 <randomrange>
	for(int i=0;i<n;i++){
  9e:	83 c4 10             	add    $0x10,%esp
		burst_times[i] = randomrange(1,20);
  a1:	89 04 9e             	mov    %eax,(%esi,%ebx,4)
	for(int i=0;i<n;i++){
  a4:	8d 5b 01             	lea    0x1(%ebx),%ebx
  a7:	39 5d d4             	cmp    %ebx,-0x2c(%ebp)
  aa:	75 e4                	jne    90 <main+0x90>
	}

	printf(1, "\tPID \t Type \t Burst Time \t Context Switches\n");
  ac:	53                   	push   %ebx
  ad:	53                   	push   %ebx
	printf(1, "\t___ \t ____ \t __________ \t ________________\n\n");
  ae:	31 db                	xor    %ebx,%ebx
	printf(1, "\tPID \t Type \t Burst Time \t Context Switches\n");
  b0:	68 74 0b 00 00       	push   $0xb74
  b5:	6a 01                	push   $0x1
  b7:	e8 c4 04 00 00       	call   580 <printf>
	printf(1, "\t___ \t ____ \t __________ \t ________________\n\n");
  bc:	58                   	pop    %eax
  bd:	5a                   	pop    %edx
  be:	68 a4 0b 00 00       	push   $0xba4
  c3:	6a 01                	push   $0x1
  c5:	e8 b6 04 00 00       	call   580 <printf>
  ca:	83 c4 10             	add    $0x10,%esp
  cd:	eb 0e                	jmp    dd <main+0xdd>
  cf:	90                   	nop
	for(int i=0;i<n;i++){
  d0:	8d 43 01             	lea    0x1(%ebx),%eax
  d3:	39 fb                	cmp    %edi,%ebx
  d5:	0f 84 93 00 00 00    	je     16e <main+0x16e>
  db:	89 c3                	mov    %eax,%ebx
		if(!fork()){
  dd:	e8 09 03 00 00       	call   3eb <fork>
  e2:	85 c0                	test   %eax,%eax
  e4:	75 ea                	jne    d0 <main+0xd0>

			// CPU Bound process
			set_burst_time(burst_times[i]);
  e6:	83 ec 0c             	sub    $0xc,%esp
  e9:	ff 34 9e             	push   (%esi,%ebx,4)
  ec:	bb 14 00 00 00       	mov    $0x14,%ebx
  f1:	e8 b5 03 00 00       	call   4ab <set_burst_time>
  f6:	83 c4 10             	add    $0x10,%esp
  f9:	8d b4 26 00 00 00 00 	lea    0x0(%esi,%eiz,1),%esi

			for(int i=0;i<20;i++){
				sleep(1);
 100:	83 ec 0c             	sub    $0xc,%esp
 103:	6a 01                	push   $0x1
 105:	e8 79 03 00 00       	call   483 <sleep>
			for(int i=0;i<20;i++){
 10a:	83 c4 10             	add    $0x10,%esp
 10d:	83 eb 01             	sub    $0x1,%ebx
 110:	75 ee                	jne    100 <main+0x100>
			}
			
			struct processInfo info;
			getCurrentInfo(&info);
 112:	83 ec 0c             	sub    $0xc,%esp
 115:	8d 45 dc             	lea    -0x24(%ebp),%eax
 118:	50                   	push   %eax
 119:	e8 9d 03 00 00       	call   4bb <getCurrentInfo>
			int bt = get_burst_time();
 11e:	e8 90 03 00 00       	call   4b3 <get_burst_time>
			if(bt<10)
				printf(1, "\t%d \t I/O         %d                  %d\n", getCurrentPID(), bt, info.numberContextSwitches);
 123:	8b 75 e4             	mov    -0x1c(%ebp),%esi
			if(bt<10)
 126:	83 c4 10             	add    $0x10,%esp
			int bt = get_burst_time();
 129:	89 c3                	mov    %eax,%ebx
			if(bt<10)
 12b:	83 f8 09             	cmp    $0x9,%eax
 12e:	7f 54                	jg     184 <main+0x184>
				printf(1, "\t%d \t I/O         %d                  %d\n", getCurrentPID(), bt, info.numberContextSwitches);
 130:	e8 8e 03 00 00       	call   4c3 <getCurrentPID>
 135:	83 ec 0c             	sub    $0xc,%esp
 138:	56                   	push   %esi
 139:	53                   	push   %ebx
 13a:	50                   	push   %eax
 13b:	68 1c 0b 00 00       	push   $0xb1c
 140:	6a 01                	push   $0x1
 142:	e8 39 04 00 00       	call   580 <printf>
 147:	83 c4 20             	add    $0x20,%esp
			else
				printf(1, "\t%d \t I/O         %d                 %d\n", getCurrentPID(), bt, info.numberContextSwitches);
			exit();
 14a:	e8 a4 02 00 00       	call   3f3 <exit>
	printf(1, "\tPID \t Type \t Burst Time \t Context Switches\n");
 14f:	50                   	push   %eax
 150:	50                   	push   %eax
 151:	68 74 0b 00 00       	push   $0xb74
 156:	6a 01                	push   $0x1
 158:	e8 23 04 00 00       	call   580 <printf>
	printf(1, "\t___ \t ____ \t __________ \t ________________\n\n");
 15d:	5a                   	pop    %edx
 15e:	59                   	pop    %ecx
 15f:	68 a4 0b 00 00       	push   $0xba4
 164:	6a 01                	push   $0x1
 166:	e8 15 04 00 00       	call   580 <printf>
 16b:	83 c4 10             	add    $0x10,%esp


		}
	}

	while(wait()!=-1);
 16e:	e8 88 02 00 00       	call   3fb <wait>
 173:	83 f8 ff             	cmp    $0xffffffff,%eax
 176:	74 d2                	je     14a <main+0x14a>
 178:	e8 7e 02 00 00       	call   3fb <wait>
 17d:	83 f8 ff             	cmp    $0xffffffff,%eax
 180:	75 ec                	jne    16e <main+0x16e>
 182:	eb c6                	jmp    14a <main+0x14a>
				printf(1, "\t%d \t I/O         %d                 %d\n", getCurrentPID(), bt, info.numberContextSwitches);
 184:	e8 3a 03 00 00       	call   4c3 <getCurrentPID>
 189:	83 ec 0c             	sub    $0xc,%esp
 18c:	56                   	push   %esi
 18d:	53                   	push   %ebx
 18e:	50                   	push   %eax
 18f:	68 48 0b 00 00       	push   $0xb48
 194:	6a 01                	push   $0x1
 196:	e8 e5 03 00 00       	call   580 <printf>
 19b:	83 c4 20             	add    $0x20,%esp
 19e:	eb aa                	jmp    14a <main+0x14a>

000001a0 <strcpy>:
#include "user.h"
#include "x86.h"

char*
strcpy(char *s, const char *t)
{
 1a0:	55                   	push   %ebp
  char *os;

  os = s;
  while((*s++ = *t++) != 0)
 1a1:	31 c0                	xor    %eax,%eax
{
 1a3:	89 e5                	mov    %esp,%ebp
 1a5:	53                   	push   %ebx
 1a6:	8b 4d 08             	mov    0x8(%ebp),%ecx
 1a9:	8b 5d 0c             	mov    0xc(%ebp),%ebx
 1ac:	8d 74 26 00          	lea    0x0(%esi,%eiz,1),%esi
  while((*s++ = *t++) != 0)
 1b0:	0f b6 14 03          	movzbl (%ebx,%eax,1),%edx
 1b4:	88 14 01             	mov    %dl,(%ecx,%eax,1)
 1b7:	83 c0 01             	add    $0x1,%eax
 1ba:	84 d2                	test   %dl,%dl
 1bc:	75 f2                	jne    1b0 <strcpy+0x10>
    ;
  return os;
}
 1be:	8b 5d fc             	mov    -0x4(%ebp),%ebx
 1c1:	89 c8                	mov    %ecx,%eax
 1c3:	c9                   	leave  
 1c4:	c3                   	ret    
 1c5:	8d b4 26 00 00 00 00 	lea    0x0(%esi,%eiz,1),%esi
 1cc:	8d 74 26 00          	lea    0x0(%esi,%eiz,1),%esi

000001d0 <strcmp>:

int
strcmp(const char *p, const char *q)
{
 1d0:	55                   	push   %ebp
 1d1:	89 e5                	mov    %esp,%ebp
 1d3:	53                   	push   %ebx
 1d4:	8b 55 08             	mov    0x8(%ebp),%edx
 1d7:	8b 4d 0c             	mov    0xc(%ebp),%ecx
  while(*p && *p == *q)
 1da:	0f b6 02             	movzbl (%edx),%eax
 1dd:	84 c0                	test   %al,%al
 1df:	75 17                	jne    1f8 <strcmp+0x28>
 1e1:	eb 3a                	jmp    21d <strcmp+0x4d>
 1e3:	8d 74 26 00          	lea    0x0(%esi,%eiz,1),%esi
 1e7:	90                   	nop
 1e8:	0f b6 42 01          	movzbl 0x1(%edx),%eax
    p++, q++;
 1ec:	83 c2 01             	add    $0x1,%edx
 1ef:	8d 59 01             	lea    0x1(%ecx),%ebx
  while(*p && *p == *q)
 1f2:	84 c0                	test   %al,%al
 1f4:	74 1a                	je     210 <strcmp+0x40>
    p++, q++;
 1f6:	89 d9                	mov    %ebx,%ecx
  while(*p && *p == *q)
 1f8:	0f b6 19             	movzbl (%ecx),%ebx
 1fb:	38 c3                	cmp    %al,%bl
 1fd:	74 e9                	je     1e8 <strcmp+0x18>
  return (uchar)*p - (uchar)*q;
 1ff:	29 d8                	sub    %ebx,%eax
}
 201:	8b 5d fc             	mov    -0x4(%ebp),%ebx
 204:	c9                   	leave  
 205:	c3                   	ret    
 206:	8d b4 26 00 00 00 00 	lea    0x0(%esi,%eiz,1),%esi
 20d:	8d 76 00             	lea    0x0(%esi),%esi
  return (uchar)*p - (uchar)*q;
 210:	0f b6 59 01          	movzbl 0x1(%ecx),%ebx
 214:	31 c0                	xor    %eax,%eax
 216:	29 d8                	sub    %ebx,%eax
}
 218:	8b 5d fc             	mov    -0x4(%ebp),%ebx
 21b:	c9                   	leave  
 21c:	c3                   	ret    
  return (uchar)*p - (uchar)*q;
 21d:	0f b6 19             	movzbl (%ecx),%ebx
 220:	31 c0                	xor    %eax,%eax
 222:	eb db                	jmp    1ff <strcmp+0x2f>
 224:	8d b4 26 00 00 00 00 	lea    0x0(%esi,%eiz,1),%esi
 22b:	8d 74 26 00          	lea    0x0(%esi,%eiz,1),%esi
 22f:	90                   	nop

00000230 <strlen>:

uint
strlen(const char *s)
{
 230:	55                   	push   %ebp
 231:	89 e5                	mov    %esp,%ebp
 233:	8b 55 08             	mov    0x8(%ebp),%edx
  int n;

  for(n = 0; s[n]; n++)
 236:	80 3a 00             	cmpb   $0x0,(%edx)
 239:	74 15                	je     250 <strlen+0x20>
 23b:	31 c0                	xor    %eax,%eax
 23d:	8d 76 00             	lea    0x0(%esi),%esi
 240:	83 c0 01             	add    $0x1,%eax
 243:	80 3c 02 00          	cmpb   $0x0,(%edx,%eax,1)
 247:	89 c1                	mov    %eax,%ecx
 249:	75 f5                	jne    240 <strlen+0x10>
    ;
  return n;
}
 24b:	89 c8                	mov    %ecx,%eax
 24d:	5d                   	pop    %ebp
 24e:	c3                   	ret    
 24f:	90                   	nop
  for(n = 0; s[n]; n++)
 250:	31 c9                	xor    %ecx,%ecx
}
 252:	5d                   	pop    %ebp
 253:	89 c8                	mov    %ecx,%eax
 255:	c3                   	ret    
 256:	8d b4 26 00 00 00 00 	lea    0x0(%esi,%eiz,1),%esi
 25d:	8d 76 00             	lea    0x0(%esi),%esi

00000260 <memset>:

void*
memset(void *dst, int c, uint n)
{
 260:	55                   	push   %ebp
 261:	89 e5                	mov    %esp,%ebp
 263:	57                   	push   %edi
 264:	8b 55 08             	mov    0x8(%ebp),%edx
}

static inline void
stosb(void *addr, int data, int cnt)
{
  asm volatile("cld; rep stosb" :
 267:	8b 4d 10             	mov    0x10(%ebp),%ecx
 26a:	8b 45 0c             	mov    0xc(%ebp),%eax
 26d:	89 d7                	mov    %edx,%edi
 26f:	fc                   	cld    
 270:	f3 aa                	rep stos %al,%es:(%edi)
  stosb(dst, c, n);
  return dst;
}
 272:	8b 7d fc             	mov    -0x4(%ebp),%edi
 275:	89 d0                	mov    %edx,%eax
 277:	c9                   	leave  
 278:	c3                   	ret    
 279:	8d b4 26 00 00 00 00 	lea    0x0(%esi,%eiz,1),%esi

00000280 <strchr>:

char*
strchr(const char *s, char c)
{
 280:	55                   	push   %ebp
 281:	89 e5                	mov    %esp,%ebp
 283:	8b 45 08             	mov    0x8(%ebp),%eax
 286:	0f b6 4d 0c          	movzbl 0xc(%ebp),%ecx
  for(; *s; s++)
 28a:	0f b6 10             	movzbl (%eax),%edx
 28d:	84 d2                	test   %dl,%dl
 28f:	75 12                	jne    2a3 <strchr+0x23>
 291:	eb 1d                	jmp    2b0 <strchr+0x30>
 293:	8d 74 26 00          	lea    0x0(%esi,%eiz,1),%esi
 297:	90                   	nop
 298:	0f b6 50 01          	movzbl 0x1(%eax),%edx
 29c:	83 c0 01             	add    $0x1,%eax
 29f:	84 d2                	test   %dl,%dl
 2a1:	74 0d                	je     2b0 <strchr+0x30>
    if(*s == c)
 2a3:	38 d1                	cmp    %dl,%cl
 2a5:	75 f1                	jne    298 <strchr+0x18>
      return (char*)s;
  return 0;
}
 2a7:	5d                   	pop    %ebp
 2a8:	c3                   	ret    
 2a9:	8d b4 26 00 00 00 00 	lea    0x0(%esi,%eiz,1),%esi
  return 0;
 2b0:	31 c0                	xor    %eax,%eax
}
 2b2:	5d                   	pop    %ebp
 2b3:	c3                   	ret    
 2b4:	8d b4 26 00 00 00 00 	lea    0x0(%esi,%eiz,1),%esi
 2bb:	8d 74 26 00          	lea    0x0(%esi,%eiz,1),%esi
 2bf:	90                   	nop

000002c0 <gets>:

char*
gets(char *buf, int max)
{
 2c0:	55                   	push   %ebp
 2c1:	89 e5                	mov    %esp,%ebp
 2c3:	57                   	push   %edi
 2c4:	56                   	push   %esi
  int i, cc;
  char c;

  for(i=0; i+1 < max; ){
    cc = read(0, &c, 1);
 2c5:	8d 7d e7             	lea    -0x19(%ebp),%edi
{
 2c8:	53                   	push   %ebx
  for(i=0; i+1 < max; ){
 2c9:	31 db                	xor    %ebx,%ebx
{
 2cb:	83 ec 1c             	sub    $0x1c,%esp
  for(i=0; i+1 < max; ){
 2ce:	eb 27                	jmp    2f7 <gets+0x37>
    cc = read(0, &c, 1);
 2d0:	83 ec 04             	sub    $0x4,%esp
 2d3:	6a 01                	push   $0x1
 2d5:	57                   	push   %edi
 2d6:	6a 00                	push   $0x0
 2d8:	e8 2e 01 00 00       	call   40b <read>
    if(cc < 1)
 2dd:	83 c4 10             	add    $0x10,%esp
 2e0:	85 c0                	test   %eax,%eax
 2e2:	7e 1d                	jle    301 <gets+0x41>
      break;
    buf[i++] = c;
 2e4:	0f b6 45 e7          	movzbl -0x19(%ebp),%eax
 2e8:	8b 55 08             	mov    0x8(%ebp),%edx
 2eb:	88 44 1a ff          	mov    %al,-0x1(%edx,%ebx,1)
    if(c == '\n' || c == '\r')
 2ef:	3c 0a                	cmp    $0xa,%al
 2f1:	74 1d                	je     310 <gets+0x50>
 2f3:	3c 0d                	cmp    $0xd,%al
 2f5:	74 19                	je     310 <gets+0x50>
  for(i=0; i+1 < max; ){
 2f7:	89 de                	mov    %ebx,%esi
 2f9:	83 c3 01             	add    $0x1,%ebx
 2fc:	3b 5d 0c             	cmp    0xc(%ebp),%ebx
 2ff:	7c cf                	jl     2d0 <gets+0x10>
      break;
  }
  buf[i] = '\0';
 301:	8b 45 08             	mov    0x8(%ebp),%eax
 304:	c6 04 30 00          	movb   $0x0,(%eax,%esi,1)
  return buf;
}
 308:	8d 65 f4             	lea    -0xc(%ebp),%esp
 30b:	5b                   	pop    %ebx
 30c:	5e                   	pop    %esi
 30d:	5f                   	pop    %edi
 30e:	5d                   	pop    %ebp
 30f:	c3                   	ret    
  buf[i] = '\0';
 310:	8b 45 08             	mov    0x8(%ebp),%eax
 313:	89 de                	mov    %ebx,%esi
 315:	c6 04 30 00          	movb   $0x0,(%eax,%esi,1)
}
 319:	8d 65 f4             	lea    -0xc(%ebp),%esp
 31c:	5b                   	pop    %ebx
 31d:	5e                   	pop    %esi
 31e:	5f                   	pop    %edi
 31f:	5d                   	pop    %ebp
 320:	c3                   	ret    
 321:	8d b4 26 00 00 00 00 	lea    0x0(%esi,%eiz,1),%esi
 328:	8d b4 26 00 00 00 00 	lea    0x0(%esi,%eiz,1),%esi
 32f:	90                   	nop

00000330 <stat>:

int
stat(const char *n, struct stat *st)
{
 330:	55                   	push   %ebp
 331:	89 e5                	mov    %esp,%ebp
 333:	56                   	push   %esi
 334:	53                   	push   %ebx
  int fd;
  int r;

  fd = open(n, O_RDONLY);
 335:	83 ec 08             	sub    $0x8,%esp
 338:	6a 00                	push   $0x0
 33a:	ff 75 08             	push   0x8(%ebp)
 33d:	e8 f1 00 00 00       	call   433 <open>
  if(fd < 0)
 342:	83 c4 10             	add    $0x10,%esp
 345:	85 c0                	test   %eax,%eax
 347:	78 27                	js     370 <stat+0x40>
    return -1;
  r = fstat(fd, st);
 349:	83 ec 08             	sub    $0x8,%esp
 34c:	ff 75 0c             	push   0xc(%ebp)
 34f:	89 c3                	mov    %eax,%ebx
 351:	50                   	push   %eax
 352:	e8 f4 00 00 00       	call   44b <fstat>
  close(fd);
 357:	89 1c 24             	mov    %ebx,(%esp)
  r = fstat(fd, st);
 35a:	89 c6                	mov    %eax,%esi
  close(fd);
 35c:	e8 ba 00 00 00       	call   41b <close>
  return r;
 361:	83 c4 10             	add    $0x10,%esp
}
 364:	8d 65 f8             	lea    -0x8(%ebp),%esp
 367:	89 f0                	mov    %esi,%eax
 369:	5b                   	pop    %ebx
 36a:	5e                   	pop    %esi
 36b:	5d                   	pop    %ebp
 36c:	c3                   	ret    
 36d:	8d 76 00             	lea    0x0(%esi),%esi
    return -1;
 370:	be ff ff ff ff       	mov    $0xffffffff,%esi
 375:	eb ed                	jmp    364 <stat+0x34>
 377:	8d b4 26 00 00 00 00 	lea    0x0(%esi,%eiz,1),%esi
 37e:	66 90                	xchg   %ax,%ax

00000380 <atoi>:

int
atoi(const char *s)
{
 380:	55                   	push   %ebp
 381:	89 e5                	mov    %esp,%ebp
 383:	53                   	push   %ebx
 384:	8b 55 08             	mov    0x8(%ebp),%edx
  int n;

  n = 0;
  while('0' <= *s && *s <= '9')
 387:	0f be 02             	movsbl (%edx),%eax
 38a:	8d 48 d0             	lea    -0x30(%eax),%ecx
 38d:	80 f9 09             	cmp    $0x9,%cl
  n = 0;
 390:	b9 00 00 00 00       	mov    $0x0,%ecx
  while('0' <= *s && *s <= '9')
 395:	77 1e                	ja     3b5 <atoi+0x35>
 397:	8d b4 26 00 00 00 00 	lea    0x0(%esi,%eiz,1),%esi
 39e:	66 90                	xchg   %ax,%ax
    n = n*10 + *s++ - '0';
 3a0:	83 c2 01             	add    $0x1,%edx
 3a3:	8d 0c 89             	lea    (%ecx,%ecx,4),%ecx
 3a6:	8d 4c 48 d0          	lea    -0x30(%eax,%ecx,2),%ecx
  while('0' <= *s && *s <= '9')
 3aa:	0f be 02             	movsbl (%edx),%eax
 3ad:	8d 58 d0             	lea    -0x30(%eax),%ebx
 3b0:	80 fb 09             	cmp    $0x9,%bl
 3b3:	76 eb                	jbe    3a0 <atoi+0x20>
  return n;
}
 3b5:	8b 5d fc             	mov    -0x4(%ebp),%ebx
 3b8:	89 c8                	mov    %ecx,%eax
 3ba:	c9                   	leave  
 3bb:	c3                   	ret    
 3bc:	8d 74 26 00          	lea    0x0(%esi,%eiz,1),%esi

000003c0 <memmove>:

void*
memmove(void *vdst, const void *vsrc, int n)
{
 3c0:	55                   	push   %ebp
 3c1:	89 e5                	mov    %esp,%ebp
 3c3:	57                   	push   %edi
 3c4:	8b 45 10             	mov    0x10(%ebp),%eax
 3c7:	8b 55 08             	mov    0x8(%ebp),%edx
 3ca:	56                   	push   %esi
 3cb:	8b 75 0c             	mov    0xc(%ebp),%esi
  char *dst;
  const char *src;

  dst = vdst;
  src = vsrc;
  while(n-- > 0)
 3ce:	85 c0                	test   %eax,%eax
 3d0:	7e 13                	jle    3e5 <memmove+0x25>
 3d2:	01 d0                	add    %edx,%eax
  dst = vdst;
 3d4:	89 d7                	mov    %edx,%edi
 3d6:	8d b4 26 00 00 00 00 	lea    0x0(%esi,%eiz,1),%esi
 3dd:	8d 76 00             	lea    0x0(%esi),%esi
    *dst++ = *src++;
 3e0:	a4                   	movsb  %ds:(%esi),%es:(%edi)
  while(n-- > 0)
 3e1:	39 f8                	cmp    %edi,%eax
 3e3:	75 fb                	jne    3e0 <memmove+0x20>
  return vdst;
}
 3e5:	5e                   	pop    %esi
 3e6:	89 d0                	mov    %edx,%eax
 3e8:	5f                   	pop    %edi
 3e9:	5d                   	pop    %ebp
 3ea:	c3                   	ret    

000003eb <fork>:
  name: \
    movl $SYS_ ## name, %eax; \
    int $T_SYSCALL; \
    ret

SYSCALL(fork)
 3eb:	b8 01 00 00 00       	mov    $0x1,%eax
 3f0:	cd 40                	int    $0x40
 3f2:	c3                   	ret    

000003f3 <exit>:
SYSCALL(exit)
 3f3:	b8 02 00 00 00       	mov    $0x2,%eax
 3f8:	cd 40                	int    $0x40
 3fa:	c3                   	ret    

000003fb <wait>:
SYSCALL(wait)
 3fb:	b8 03 00 00 00       	mov    $0x3,%eax
 400:	cd 40                	int    $0x40
 402:	c3                   	ret    

00000403 <pipe>:
SYSCALL(pipe)
 403:	b8 04 00 00 00       	mov    $0x4,%eax
 408:	cd 40                	int    $0x40
 40a:	c3                   	ret    

0000040b <read>:
SYSCALL(read)
 40b:	b8 05 00 00 00       	mov    $0x5,%eax
 410:	cd 40                	int    $0x40
 412:	c3                   	ret    

00000413 <write>:
SYSCALL(write)
 413:	b8 10 00 00 00       	mov    $0x10,%eax
 418:	cd 40                	int    $0x40
 41a:	c3                   	ret    

0000041b <close>:
SYSCALL(close)
 41b:	b8 15 00 00 00       	mov    $0x15,%eax
 420:	cd 40                	int    $0x40
 422:	c3                   	ret    

00000423 <kill>:
SYSCALL(kill)
 423:	b8 06 00 00 00       	mov    $0x6,%eax
 428:	cd 40                	int    $0x40
 42a:	c3                   	ret    

0000042b <exec>:
SYSCALL(exec)
 42b:	b8 07 00 00 00       	mov    $0x7,%eax
 430:	cd 40                	int    $0x40
 432:	c3                   	ret    

00000433 <open>:
SYSCALL(open)
 433:	b8 0f 00 00 00       	mov    $0xf,%eax
 438:	cd 40                	int    $0x40
 43a:	c3                   	ret    

0000043b <mknod>:
SYSCALL(mknod)
 43b:	b8 11 00 00 00       	mov    $0x11,%eax
 440:	cd 40                	int    $0x40
 442:	c3                   	ret    

00000443 <unlink>:
SYSCALL(unlink)
 443:	b8 12 00 00 00       	mov    $0x12,%eax
 448:	cd 40                	int    $0x40
 44a:	c3                   	ret    

0000044b <fstat>:
SYSCALL(fstat)
 44b:	b8 08 00 00 00       	mov    $0x8,%eax
 450:	cd 40                	int    $0x40
 452:	c3                   	ret    

00000453 <link>:
SYSCALL(link)
 453:	b8 13 00 00 00       	mov    $0x13,%eax
 458:	cd 40                	int    $0x40
 45a:	c3                   	ret    

0000045b <mkdir>:
SYSCALL(mkdir)
 45b:	b8 14 00 00 00       	mov    $0x14,%eax
 460:	cd 40                	int    $0x40
 462:	c3                   	ret    

00000463 <chdir>:
SYSCALL(chdir)
 463:	b8 09 00 00 00       	mov    $0x9,%eax
 468:	cd 40                	int    $0x40
 46a:	c3                   	ret    

0000046b <dup>:
SYSCALL(dup)
 46b:	b8 0a 00 00 00       	mov    $0xa,%eax
 470:	cd 40                	int    $0x40
 472:	c3                   	ret    

00000473 <getpid>:
SYSCALL(getpid)
 473:	b8 0b 00 00 00       	mov    $0xb,%eax
 478:	cd 40                	int    $0x40
 47a:	c3                   	ret    

0000047b <sbrk>:
SYSCALL(sbrk)
 47b:	b8 0c 00 00 00       	mov    $0xc,%eax
 480:	cd 40                	int    $0x40
 482:	c3                   	ret    

00000483 <sleep>:
SYSCALL(sleep)
 483:	b8 0d 00 00 00       	mov    $0xd,%eax
 488:	cd 40                	int    $0x40
 48a:	c3                   	ret    

0000048b <uptime>:
SYSCALL(uptime)
 48b:	b8 0e 00 00 00       	mov    $0xe,%eax
 490:	cd 40                	int    $0x40
 492:	c3                   	ret    

00000493 <getNumProc>:
SYSCALL(getNumProc)
 493:	b8 16 00 00 00       	mov    $0x16,%eax
 498:	cd 40                	int    $0x40
 49a:	c3                   	ret    

0000049b <getMaxPID>:
SYSCALL(getMaxPID)
 49b:	b8 17 00 00 00       	mov    $0x17,%eax
 4a0:	cd 40                	int    $0x40
 4a2:	c3                   	ret    

000004a3 <getProcInfo>:
SYSCALL(getProcInfo)
 4a3:	b8 18 00 00 00       	mov    $0x18,%eax
 4a8:	cd 40                	int    $0x40
 4aa:	c3                   	ret    

000004ab <set_burst_time>:
SYSCALL(set_burst_time)
 4ab:	b8 19 00 00 00       	mov    $0x19,%eax
 4b0:	cd 40                	int    $0x40
 4b2:	c3                   	ret    

000004b3 <get_burst_time>:
SYSCALL(get_burst_time)
 4b3:	b8 1a 00 00 00       	mov    $0x1a,%eax
 4b8:	cd 40                	int    $0x40
 4ba:	c3                   	ret    

000004bb <getCurrentInfo>:
SYSCALL(getCurrentInfo)
 4bb:	b8 1c 00 00 00       	mov    $0x1c,%eax
 4c0:	cd 40                	int    $0x40
 4c2:	c3                   	ret    

000004c3 <getCurrentPID>:
 4c3:	b8 1d 00 00 00       	mov    $0x1d,%eax
 4c8:	cd 40                	int    $0x40
 4ca:	c3                   	ret    
 4cb:	66 90                	xchg   %ax,%ax
 4cd:	66 90                	xchg   %ax,%ax
 4cf:	90                   	nop

000004d0 <printint>:
  write(fd, &c, 1);
}

static void
printint(int fd, int xx, int base, int sgn)
{
 4d0:	55                   	push   %ebp
 4d1:	89 e5                	mov    %esp,%ebp
 4d3:	57                   	push   %edi
 4d4:	56                   	push   %esi
 4d5:	53                   	push   %ebx
 4d6:	83 ec 3c             	sub    $0x3c,%esp
 4d9:	89 4d c4             	mov    %ecx,-0x3c(%ebp)
  uint x;

  neg = 0;
  if(sgn && xx < 0){
    neg = 1;
    x = -xx;
 4dc:	89 d1                	mov    %edx,%ecx
{
 4de:	89 45 b8             	mov    %eax,-0x48(%ebp)
  if(sgn && xx < 0){
 4e1:	85 d2                	test   %edx,%edx
 4e3:	0f 89 7f 00 00 00    	jns    568 <printint+0x98>
 4e9:	f6 45 08 01          	testb  $0x1,0x8(%ebp)
 4ed:	74 79                	je     568 <printint+0x98>
    neg = 1;
 4ef:	c7 45 bc 01 00 00 00 	movl   $0x1,-0x44(%ebp)
    x = -xx;
 4f6:	f7 d9                	neg    %ecx
  } else {
    x = xx;
  }

  i = 0;
 4f8:	31 db                	xor    %ebx,%ebx
 4fa:	8d 75 d7             	lea    -0x29(%ebp),%esi
 4fd:	8d 76 00             	lea    0x0(%esi),%esi
  do{
    buf[i++] = digits[x % base];
 500:	89 c8                	mov    %ecx,%eax
 502:	31 d2                	xor    %edx,%edx
 504:	89 cf                	mov    %ecx,%edi
 506:	f7 75 c4             	divl   -0x3c(%ebp)
 509:	0f b6 92 34 0c 00 00 	movzbl 0xc34(%edx),%edx
 510:	89 45 c0             	mov    %eax,-0x40(%ebp)
 513:	89 d8                	mov    %ebx,%eax
 515:	8d 5b 01             	lea    0x1(%ebx),%ebx
  }while((x /= base) != 0);
 518:	8b 4d c0             	mov    -0x40(%ebp),%ecx
    buf[i++] = digits[x % base];
 51b:	88 14 1e             	mov    %dl,(%esi,%ebx,1)
  }while((x /= base) != 0);
 51e:	39 7d c4             	cmp    %edi,-0x3c(%ebp)
 521:	76 dd                	jbe    500 <printint+0x30>
  if(neg)
 523:	8b 4d bc             	mov    -0x44(%ebp),%ecx
 526:	85 c9                	test   %ecx,%ecx
 528:	74 0c                	je     536 <printint+0x66>
    buf[i++] = '-';
 52a:	c6 44 1d d8 2d       	movb   $0x2d,-0x28(%ebp,%ebx,1)
    buf[i++] = digits[x % base];
 52f:	89 d8                	mov    %ebx,%eax
    buf[i++] = '-';
 531:	ba 2d 00 00 00       	mov    $0x2d,%edx

  while(--i >= 0)
 536:	8b 7d b8             	mov    -0x48(%ebp),%edi
 539:	8d 5c 05 d7          	lea    -0x29(%ebp,%eax,1),%ebx
 53d:	eb 07                	jmp    546 <printint+0x76>
 53f:	90                   	nop
    putc(fd, buf[i]);
 540:	0f b6 13             	movzbl (%ebx),%edx
 543:	83 eb 01             	sub    $0x1,%ebx
  write(fd, &c, 1);
 546:	83 ec 04             	sub    $0x4,%esp
 549:	88 55 d7             	mov    %dl,-0x29(%ebp)
 54c:	6a 01                	push   $0x1
 54e:	56                   	push   %esi
 54f:	57                   	push   %edi
 550:	e8 be fe ff ff       	call   413 <write>
  while(--i >= 0)
 555:	83 c4 10             	add    $0x10,%esp
 558:	39 de                	cmp    %ebx,%esi
 55a:	75 e4                	jne    540 <printint+0x70>
}
 55c:	8d 65 f4             	lea    -0xc(%ebp),%esp
 55f:	5b                   	pop    %ebx
 560:	5e                   	pop    %esi
 561:	5f                   	pop    %edi
 562:	5d                   	pop    %ebp
 563:	c3                   	ret    
 564:	8d 74 26 00          	lea    0x0(%esi,%eiz,1),%esi
  neg = 0;
 568:	c7 45 bc 00 00 00 00 	movl   $0x0,-0x44(%ebp)
 56f:	eb 87                	jmp    4f8 <printint+0x28>
 571:	8d b4 26 00 00 00 00 	lea    0x0(%esi,%eiz,1),%esi
 578:	8d b4 26 00 00 00 00 	lea    0x0(%esi,%eiz,1),%esi
 57f:	90                   	nop

00000580 <printf>:

// Print to the given fd. Only understands %d, %x, %p, %s.
void
printf(int fd, const char *fmt, ...)
{
 580:	55                   	push   %ebp
 581:	89 e5                	mov    %esp,%ebp
 583:	57                   	push   %edi
 584:	56                   	push   %esi
 585:	53                   	push   %ebx
 586:	83 ec 2c             	sub    $0x2c,%esp
  int c, i, state;
  uint *ap;

  state = 0;
  ap = (uint*)(void*)&fmt + 1;
  for(i = 0; fmt[i]; i++){
 589:	8b 5d 0c             	mov    0xc(%ebp),%ebx
{
 58c:	8b 75 08             	mov    0x8(%ebp),%esi
  for(i = 0; fmt[i]; i++){
 58f:	0f b6 13             	movzbl (%ebx),%edx
 592:	84 d2                	test   %dl,%dl
 594:	74 6a                	je     600 <printf+0x80>
  ap = (uint*)(void*)&fmt + 1;
 596:	8d 45 10             	lea    0x10(%ebp),%eax
 599:	83 c3 01             	add    $0x1,%ebx
  write(fd, &c, 1);
 59c:	8d 7d e7             	lea    -0x19(%ebp),%edi
  state = 0;
 59f:	31 c9                	xor    %ecx,%ecx
  ap = (uint*)(void*)&fmt + 1;
 5a1:	89 45 d0             	mov    %eax,-0x30(%ebp)
 5a4:	eb 36                	jmp    5dc <printf+0x5c>
 5a6:	8d b4 26 00 00 00 00 	lea    0x0(%esi,%eiz,1),%esi
 5ad:	8d 76 00             	lea    0x0(%esi),%esi
 5b0:	89 4d d4             	mov    %ecx,-0x2c(%ebp)
    c = fmt[i] & 0xff;
    if(state == 0){
      if(c == '%'){
        state = '%';
 5b3:	b9 25 00 00 00       	mov    $0x25,%ecx
      if(c == '%'){
 5b8:	83 f8 25             	cmp    $0x25,%eax
 5bb:	74 15                	je     5d2 <printf+0x52>
  write(fd, &c, 1);
 5bd:	83 ec 04             	sub    $0x4,%esp
 5c0:	88 55 e7             	mov    %dl,-0x19(%ebp)
 5c3:	6a 01                	push   $0x1
 5c5:	57                   	push   %edi
 5c6:	56                   	push   %esi
 5c7:	e8 47 fe ff ff       	call   413 <write>
 5cc:	8b 4d d4             	mov    -0x2c(%ebp),%ecx
      } else {
        putc(fd, c);
 5cf:	83 c4 10             	add    $0x10,%esp
  for(i = 0; fmt[i]; i++){
 5d2:	0f b6 13             	movzbl (%ebx),%edx
 5d5:	83 c3 01             	add    $0x1,%ebx
 5d8:	84 d2                	test   %dl,%dl
 5da:	74 24                	je     600 <printf+0x80>
    c = fmt[i] & 0xff;
 5dc:	0f b6 c2             	movzbl %dl,%eax
    if(state == 0){
 5df:	85 c9                	test   %ecx,%ecx
 5e1:	74 cd                	je     5b0 <printf+0x30>
      }
    } else if(state == '%'){
 5e3:	83 f9 25             	cmp    $0x25,%ecx
 5e6:	75 ea                	jne    5d2 <printf+0x52>
      if(c == 'd'){
 5e8:	83 f8 25             	cmp    $0x25,%eax
 5eb:	0f 84 07 01 00 00    	je     6f8 <printf+0x178>
 5f1:	83 e8 63             	sub    $0x63,%eax
 5f4:	83 f8 15             	cmp    $0x15,%eax
 5f7:	77 17                	ja     610 <printf+0x90>
 5f9:	ff 24 85 dc 0b 00 00 	jmp    *0xbdc(,%eax,4)
        putc(fd, c);
      }
      state = 0;
    }
  }
}
 600:	8d 65 f4             	lea    -0xc(%ebp),%esp
 603:	5b                   	pop    %ebx
 604:	5e                   	pop    %esi
 605:	5f                   	pop    %edi
 606:	5d                   	pop    %ebp
 607:	c3                   	ret    
 608:	8d b4 26 00 00 00 00 	lea    0x0(%esi,%eiz,1),%esi
 60f:	90                   	nop
  write(fd, &c, 1);
 610:	83 ec 04             	sub    $0x4,%esp
 613:	88 55 d4             	mov    %dl,-0x2c(%ebp)
 616:	6a 01                	push   $0x1
 618:	57                   	push   %edi
 619:	56                   	push   %esi
 61a:	c6 45 e7 25          	movb   $0x25,-0x19(%ebp)
 61e:	e8 f0 fd ff ff       	call   413 <write>
        putc(fd, c);
 623:	0f b6 55 d4          	movzbl -0x2c(%ebp),%edx
  write(fd, &c, 1);
 627:	83 c4 0c             	add    $0xc,%esp
 62a:	88 55 e7             	mov    %dl,-0x19(%ebp)
 62d:	6a 01                	push   $0x1
 62f:	57                   	push   %edi
 630:	56                   	push   %esi
 631:	e8 dd fd ff ff       	call   413 <write>
        putc(fd, c);
 636:	83 c4 10             	add    $0x10,%esp
      state = 0;
 639:	31 c9                	xor    %ecx,%ecx
 63b:	eb 95                	jmp    5d2 <printf+0x52>
 63d:	8d 76 00             	lea    0x0(%esi),%esi
        printint(fd, *ap, 16, 0);
 640:	83 ec 0c             	sub    $0xc,%esp
 643:	b9 10 00 00 00       	mov    $0x10,%ecx
 648:	6a 00                	push   $0x0
 64a:	8b 45 d0             	mov    -0x30(%ebp),%eax
 64d:	8b 10                	mov    (%eax),%edx
 64f:	89 f0                	mov    %esi,%eax
 651:	e8 7a fe ff ff       	call   4d0 <printint>
        ap++;
 656:	83 45 d0 04          	addl   $0x4,-0x30(%ebp)
 65a:	83 c4 10             	add    $0x10,%esp
      state = 0;
 65d:	31 c9                	xor    %ecx,%ecx
 65f:	e9 6e ff ff ff       	jmp    5d2 <printf+0x52>
 664:	8d 74 26 00          	lea    0x0(%esi,%eiz,1),%esi
        s = (char*)*ap;
 668:	8b 45 d0             	mov    -0x30(%ebp),%eax
 66b:	8b 10                	mov    (%eax),%edx
        ap++;
 66d:	83 c0 04             	add    $0x4,%eax
 670:	89 45 d0             	mov    %eax,-0x30(%ebp)
        if(s == 0)
 673:	85 d2                	test   %edx,%edx
 675:	0f 84 8d 00 00 00    	je     708 <printf+0x188>
        while(*s != 0){
 67b:	0f b6 02             	movzbl (%edx),%eax
      state = 0;
 67e:	31 c9                	xor    %ecx,%ecx
        while(*s != 0){
 680:	84 c0                	test   %al,%al
 682:	0f 84 4a ff ff ff    	je     5d2 <printf+0x52>
 688:	89 5d d4             	mov    %ebx,-0x2c(%ebp)
 68b:	89 d3                	mov    %edx,%ebx
 68d:	8d 76 00             	lea    0x0(%esi),%esi
  write(fd, &c, 1);
 690:	83 ec 04             	sub    $0x4,%esp
          s++;
 693:	83 c3 01             	add    $0x1,%ebx
 696:	88 45 e7             	mov    %al,-0x19(%ebp)
  write(fd, &c, 1);
 699:	6a 01                	push   $0x1
 69b:	57                   	push   %edi
 69c:	56                   	push   %esi
 69d:	e8 71 fd ff ff       	call   413 <write>
        while(*s != 0){
 6a2:	0f b6 03             	movzbl (%ebx),%eax
 6a5:	83 c4 10             	add    $0x10,%esp
 6a8:	84 c0                	test   %al,%al
 6aa:	75 e4                	jne    690 <printf+0x110>
      state = 0;
 6ac:	8b 5d d4             	mov    -0x2c(%ebp),%ebx
 6af:	31 c9                	xor    %ecx,%ecx
 6b1:	e9 1c ff ff ff       	jmp    5d2 <printf+0x52>
 6b6:	8d b4 26 00 00 00 00 	lea    0x0(%esi,%eiz,1),%esi
 6bd:	8d 76 00             	lea    0x0(%esi),%esi
        printint(fd, *ap, 10, 1);
 6c0:	83 ec 0c             	sub    $0xc,%esp
 6c3:	b9 0a 00 00 00       	mov    $0xa,%ecx
 6c8:	6a 01                	push   $0x1
 6ca:	e9 7b ff ff ff       	jmp    64a <printf+0xca>
 6cf:	90                   	nop
        putc(fd, *ap);
 6d0:	8b 45 d0             	mov    -0x30(%ebp),%eax
  write(fd, &c, 1);
 6d3:	83 ec 04             	sub    $0x4,%esp
        putc(fd, *ap);
 6d6:	8b 00                	mov    (%eax),%eax
  write(fd, &c, 1);
 6d8:	6a 01                	push   $0x1
 6da:	57                   	push   %edi
 6db:	56                   	push   %esi
        putc(fd, *ap);
 6dc:	88 45 e7             	mov    %al,-0x19(%ebp)
  write(fd, &c, 1);
 6df:	e8 2f fd ff ff       	call   413 <write>
        ap++;
 6e4:	83 45 d0 04          	addl   $0x4,-0x30(%ebp)
 6e8:	83 c4 10             	add    $0x10,%esp
      state = 0;
 6eb:	31 c9                	xor    %ecx,%ecx
 6ed:	e9 e0 fe ff ff       	jmp    5d2 <printf+0x52>
 6f2:	8d b6 00 00 00 00    	lea    0x0(%esi),%esi
        putc(fd, c);
 6f8:	88 55 e7             	mov    %dl,-0x19(%ebp)
  write(fd, &c, 1);
 6fb:	83 ec 04             	sub    $0x4,%esp
 6fe:	e9 2a ff ff ff       	jmp    62d <printf+0xad>
 703:	8d 74 26 00          	lea    0x0(%esi,%eiz,1),%esi
 707:	90                   	nop
          s = "(null)";
 708:	ba d2 0b 00 00       	mov    $0xbd2,%edx
        while(*s != 0){
 70d:	89 5d d4             	mov    %ebx,-0x2c(%ebp)
 710:	b8 28 00 00 00       	mov    $0x28,%eax
 715:	89 d3                	mov    %edx,%ebx
 717:	e9 74 ff ff ff       	jmp    690 <printf+0x110>
 71c:	66 90                	xchg   %ax,%ax
 71e:	66 90                	xchg   %ax,%ax

00000720 <free>:
static Header base;
static Header *freep;

void
free(void *ap)
{
 720:	55                   	push   %ebp
  Header *bp, *p;

  bp = (Header*)ap - 1;
  for(p = freep; !(bp > p && bp < p->s.ptr); p = p->s.ptr)
 721:	a1 80 0f 00 00       	mov    0xf80,%eax
{
 726:	89 e5                	mov    %esp,%ebp
 728:	57                   	push   %edi
 729:	56                   	push   %esi
 72a:	53                   	push   %ebx
 72b:	8b 5d 08             	mov    0x8(%ebp),%ebx
  bp = (Header*)ap - 1;
 72e:	8d 4b f8             	lea    -0x8(%ebx),%ecx
  for(p = freep; !(bp > p && bp < p->s.ptr); p = p->s.ptr)
 731:	8d b4 26 00 00 00 00 	lea    0x0(%esi,%eiz,1),%esi
 738:	89 c2                	mov    %eax,%edx
 73a:	8b 00                	mov    (%eax),%eax
 73c:	39 ca                	cmp    %ecx,%edx
 73e:	73 30                	jae    770 <free+0x50>
 740:	39 c1                	cmp    %eax,%ecx
 742:	72 04                	jb     748 <free+0x28>
    if(p >= p->s.ptr && (bp > p || bp < p->s.ptr))
 744:	39 c2                	cmp    %eax,%edx
 746:	72 f0                	jb     738 <free+0x18>
      break;
  if(bp + bp->s.size == p->s.ptr){
 748:	8b 73 fc             	mov    -0x4(%ebx),%esi
 74b:	8d 3c f1             	lea    (%ecx,%esi,8),%edi
 74e:	39 f8                	cmp    %edi,%eax
 750:	74 30                	je     782 <free+0x62>
    bp->s.size += p->s.ptr->s.size;
    bp->s.ptr = p->s.ptr->s.ptr;
 752:	89 43 f8             	mov    %eax,-0x8(%ebx)
  } else
    bp->s.ptr = p->s.ptr;
  if(p + p->s.size == bp){
 755:	8b 42 04             	mov    0x4(%edx),%eax
 758:	8d 34 c2             	lea    (%edx,%eax,8),%esi
 75b:	39 f1                	cmp    %esi,%ecx
 75d:	74 3a                	je     799 <free+0x79>
    p->s.size += bp->s.size;
    p->s.ptr = bp->s.ptr;
 75f:	89 0a                	mov    %ecx,(%edx)
  } else
    p->s.ptr = bp;
  freep = p;
}
 761:	5b                   	pop    %ebx
  freep = p;
 762:	89 15 80 0f 00 00    	mov    %edx,0xf80
}
 768:	5e                   	pop    %esi
 769:	5f                   	pop    %edi
 76a:	5d                   	pop    %ebp
 76b:	c3                   	ret    
 76c:	8d 74 26 00          	lea    0x0(%esi,%eiz,1),%esi
    if(p >= p->s.ptr && (bp > p || bp < p->s.ptr))
 770:	39 c2                	cmp    %eax,%edx
 772:	72 c4                	jb     738 <free+0x18>
 774:	39 c1                	cmp    %eax,%ecx
 776:	73 c0                	jae    738 <free+0x18>
  if(bp + bp->s.size == p->s.ptr){
 778:	8b 73 fc             	mov    -0x4(%ebx),%esi
 77b:	8d 3c f1             	lea    (%ecx,%esi,8),%edi
 77e:	39 f8                	cmp    %edi,%eax
 780:	75 d0                	jne    752 <free+0x32>
    bp->s.size += p->s.ptr->s.size;
 782:	03 70 04             	add    0x4(%eax),%esi
 785:	89 73 fc             	mov    %esi,-0x4(%ebx)
    bp->s.ptr = p->s.ptr->s.ptr;
 788:	8b 02                	mov    (%edx),%eax
 78a:	8b 00                	mov    (%eax),%eax
 78c:	89 43 f8             	mov    %eax,-0x8(%ebx)
  if(p + p->s.size == bp){
 78f:	8b 42 04             	mov    0x4(%edx),%eax
 792:	8d 34 c2             	lea    (%edx,%eax,8),%esi
 795:	39 f1                	cmp    %esi,%ecx
 797:	75 c6                	jne    75f <free+0x3f>
    p->s.size += bp->s.size;
 799:	03 43 fc             	add    -0x4(%ebx),%eax
  freep = p;
 79c:	89 15 80 0f 00 00    	mov    %edx,0xf80
    p->s.size += bp->s.size;
 7a2:	89 42 04             	mov    %eax,0x4(%edx)
    p->s.ptr = bp->s.ptr;
 7a5:	8b 4b f8             	mov    -0x8(%ebx),%ecx
 7a8:	89 0a                	mov    %ecx,(%edx)
}
 7aa:	5b                   	pop    %ebx
 7ab:	5e                   	pop    %esi
 7ac:	5f                   	pop    %edi
 7ad:	5d                   	pop    %ebp
 7ae:	c3                   	ret    
 7af:	90                   	nop

000007b0 <malloc>:
  return freep;
}

void*
malloc(uint nbytes)
{
 7b0:	55                   	push   %ebp
 7b1:	89 e5                	mov    %esp,%ebp
 7b3:	57                   	push   %edi
 7b4:	56                   	push   %esi
 7b5:	53                   	push   %ebx
 7b6:	83 ec 1c             	sub    $0x1c,%esp
  Header *p, *prevp;
  uint nunits;

  nunits = (nbytes + sizeof(Header) - 1)/sizeof(Header) + 1;
 7b9:	8b 45 08             	mov    0x8(%ebp),%eax
  if((prevp = freep) == 0){
 7bc:	8b 3d 80 0f 00 00    	mov    0xf80,%edi
  nunits = (nbytes + sizeof(Header) - 1)/sizeof(Header) + 1;
 7c2:	8d 70 07             	lea    0x7(%eax),%esi
 7c5:	c1 ee 03             	shr    $0x3,%esi
 7c8:	83 c6 01             	add    $0x1,%esi
  if((prevp = freep) == 0){
 7cb:	85 ff                	test   %edi,%edi
 7cd:	0f 84 9d 00 00 00    	je     870 <malloc+0xc0>
    base.s.ptr = freep = prevp = &base;
    base.s.size = 0;
  }
  for(p = prevp->s.ptr; ; prevp = p, p = p->s.ptr){
 7d3:	8b 17                	mov    (%edi),%edx
    if(p->s.size >= nunits){
 7d5:	8b 4a 04             	mov    0x4(%edx),%ecx
 7d8:	39 f1                	cmp    %esi,%ecx
 7da:	73 6a                	jae    846 <malloc+0x96>
 7dc:	bb 00 10 00 00       	mov    $0x1000,%ebx
 7e1:	39 de                	cmp    %ebx,%esi
 7e3:	0f 43 de             	cmovae %esi,%ebx
  p = sbrk(nu * sizeof(Header));
 7e6:	8d 04 dd 00 00 00 00 	lea    0x0(,%ebx,8),%eax
 7ed:	89 45 e4             	mov    %eax,-0x1c(%ebp)
 7f0:	eb 17                	jmp    809 <malloc+0x59>
 7f2:	8d b6 00 00 00 00    	lea    0x0(%esi),%esi
  for(p = prevp->s.ptr; ; prevp = p, p = p->s.ptr){
 7f8:	8b 02                	mov    (%edx),%eax
    if(p->s.size >= nunits){
 7fa:	8b 48 04             	mov    0x4(%eax),%ecx
 7fd:	39 f1                	cmp    %esi,%ecx
 7ff:	73 4f                	jae    850 <malloc+0xa0>
        p->s.size = nunits;
      }
      freep = prevp;
      return (void*)(p + 1);
    }
    if(p == freep)
 801:	8b 3d 80 0f 00 00    	mov    0xf80,%edi
 807:	89 c2                	mov    %eax,%edx
 809:	39 d7                	cmp    %edx,%edi
 80b:	75 eb                	jne    7f8 <malloc+0x48>
  p = sbrk(nu * sizeof(Header));
 80d:	83 ec 0c             	sub    $0xc,%esp
 810:	ff 75 e4             	push   -0x1c(%ebp)
 813:	e8 63 fc ff ff       	call   47b <sbrk>
  if(p == (char*)-1)
 818:	83 c4 10             	add    $0x10,%esp
 81b:	83 f8 ff             	cmp    $0xffffffff,%eax
 81e:	74 1c                	je     83c <malloc+0x8c>
  hp->s.size = nu;
 820:	89 58 04             	mov    %ebx,0x4(%eax)
  free((void*)(hp + 1));
 823:	83 ec 0c             	sub    $0xc,%esp
 826:	83 c0 08             	add    $0x8,%eax
 829:	50                   	push   %eax
 82a:	e8 f1 fe ff ff       	call   720 <free>
  return freep;
 82f:	8b 15 80 0f 00 00    	mov    0xf80,%edx
      if((p = morecore(nunits)) == 0)
 835:	83 c4 10             	add    $0x10,%esp
 838:	85 d2                	test   %edx,%edx
 83a:	75 bc                	jne    7f8 <malloc+0x48>
        return 0;
  }
}
 83c:	8d 65 f4             	lea    -0xc(%ebp),%esp
        return 0;
 83f:	31 c0                	xor    %eax,%eax
}
 841:	5b                   	pop    %ebx
 842:	5e                   	pop    %esi
 843:	5f                   	pop    %edi
 844:	5d                   	pop    %ebp
 845:	c3                   	ret    
    if(p->s.size >= nunits){
 846:	89 d0                	mov    %edx,%eax
 848:	89 fa                	mov    %edi,%edx
 84a:	8d b6 00 00 00 00    	lea    0x0(%esi),%esi
      if(p->s.size == nunits)
 850:	39 ce                	cmp    %ecx,%esi
 852:	74 4c                	je     8a0 <malloc+0xf0>
        p->s.size -= nunits;
 854:	29 f1                	sub    %esi,%ecx
 856:	89 48 04             	mov    %ecx,0x4(%eax)
        p += p->s.size;
 859:	8d 04 c8             	lea    (%eax,%ecx,8),%eax
        p->s.size = nunits;
 85c:	89 70 04             	mov    %esi,0x4(%eax)
      freep = prevp;
 85f:	89 15 80 0f 00 00    	mov    %edx,0xf80
}
 865:	8d 65 f4             	lea    -0xc(%ebp),%esp
      return (void*)(p + 1);
 868:	83 c0 08             	add    $0x8,%eax
}
 86b:	5b                   	pop    %ebx
 86c:	5e                   	pop    %esi
 86d:	5f                   	pop    %edi
 86e:	5d                   	pop    %ebp
 86f:	c3                   	ret    
    base.s.ptr = freep = prevp = &base;
 870:	c7 05 80 0f 00 00 84 	movl   $0xf84,0xf80
 877:	0f 00 00 
    base.s.size = 0;
 87a:	bf 84 0f 00 00       	mov    $0xf84,%edi
    base.s.ptr = freep = prevp = &base;
 87f:	c7 05 84 0f 00 00 84 	movl   $0xf84,0xf84
 886:	0f 00 00 
  for(p = prevp->s.ptr; ; prevp = p, p = p->s.ptr){
 889:	89 fa                	mov    %edi,%edx
    base.s.size = 0;
 88b:	c7 05 88 0f 00 00 00 	movl   $0x0,0xf88
 892:	00 00 00 
    if(p->s.size >= nunits){
 895:	e9 42 ff ff ff       	jmp    7dc <malloc+0x2c>
 89a:	8d b6 00 00 00 00    	lea    0x0(%esi),%esi
        prevp->s.ptr = p->s.ptr;
 8a0:	8b 08                	mov    (%eax),%ecx
 8a2:	89 0a                	mov    %ecx,(%edx)
 8a4:	eb b9                	jmp    85f <malloc+0xaf>
 8a6:	66 90                	xchg   %ax,%ax
 8a8:	66 90                	xchg   %ax,%ax
 8aa:	66 90                	xchg   %ax,%ax
 8ac:	66 90                	xchg   %ax,%ax
 8ae:	66 90                	xchg   %ax,%ax

000008b0 <sgenrand>:
static int mti=N+1; /* mti==N+1 means mt[N] is not initialized */

/* initializing the array with a NONZERO seed */
void
sgenrand(unsigned long seed)
{
 8b0:	55                   	push   %ebp
 8b1:	b8 a4 0f 00 00       	mov    $0xfa4,%eax
 8b6:	89 e5                	mov    %esp,%ebp
 8b8:	8b 55 08             	mov    0x8(%ebp),%edx
    /* setting initial seeds to mt[N] using         */
    /* the generator Line 25 of Table 1 in          */
    /* [KNUTH 1981, The Art of Computer Programming */
    /*    Vol. 2 (2nd Ed.), pp102]                  */
    mt[0]= seed & 0xffffffff;
 8bb:	89 15 a0 0f 00 00    	mov    %edx,0xfa0
    for (mti=1; mti<N; mti++)
 8c1:	eb 08                	jmp    8cb <sgenrand+0x1b>
 8c3:	8d 74 26 00          	lea    0x0(%esi,%eiz,1),%esi
 8c7:	90                   	nop
 8c8:	83 c0 04             	add    $0x4,%eax
        mt[mti] = (69069 * mt[mti-1]) & 0xffffffff;
 8cb:	69 d2 cd 0d 01 00    	imul   $0x10dcd,%edx,%edx
 8d1:	89 10                	mov    %edx,(%eax)
    for (mti=1; mti<N; mti++)
 8d3:	3d 5c 19 00 00       	cmp    $0x195c,%eax
 8d8:	75 ee                	jne    8c8 <sgenrand+0x18>
 8da:	c7 05 78 0f 00 00 70 	movl   $0x270,0xf78
 8e1:	02 00 00 
}
 8e4:	5d                   	pop    %ebp
 8e5:	c3                   	ret    
 8e6:	8d b4 26 00 00 00 00 	lea    0x0(%esi,%eiz,1),%esi
 8ed:	8d 76 00             	lea    0x0(%esi),%esi

000008f0 <genrand>:
{
    unsigned long y;
    static unsigned long mag01[2]={0x0, MATRIX_A};
    /* mag01[x] = x * MATRIX_A  for x=0,1 */

    if (mti >= N) { /* generate N words at one time */
 8f0:	a1 78 0f 00 00       	mov    0xf78,%eax
 8f5:	3d 6f 02 00 00       	cmp    $0x26f,%eax
 8fa:	7f 3d                	jg     939 <genrand+0x49>
        mt[N-1] = mt[M-1] ^ (y >> 1) ^ mag01[y & 0x1];

        mti = 0;
    }
  
    y = mt[mti++];
 8fc:	8b 0c 85 a0 0f 00 00 	mov    0xfa0(,%eax,4),%ecx
 903:	8d 50 01             	lea    0x1(%eax),%edx
 906:	89 15 78 0f 00 00    	mov    %edx,0xf78
    y ^= TEMPERING_SHIFT_U(y);
 90c:	89 ca                	mov    %ecx,%edx
 90e:	c1 ea 0b             	shr    $0xb,%edx
 911:	31 ca                	xor    %ecx,%edx
    y ^= TEMPERING_SHIFT_S(y) & TEMPERING_MASK_B;
 913:	89 d0                	mov    %edx,%eax
 915:	c1 e0 07             	shl    $0x7,%eax
 918:	25 80 56 2c 9d       	and    $0x9d2c5680,%eax
 91d:	31 d0                	xor    %edx,%eax
    y ^= TEMPERING_SHIFT_T(y) & TEMPERING_MASK_C;
 91f:	89 c2                	mov    %eax,%edx
 921:	c1 e2 0f             	shl    $0xf,%edx
 924:	81 e2 00 00 c6 ef    	and    $0xefc60000,%edx
 92a:	31 c2                	xor    %eax,%edx
    y ^= TEMPERING_SHIFT_L(y);
 92c:	89 d0                	mov    %edx,%eax
 92e:	c1 e8 12             	shr    $0x12,%eax
 931:	31 d0                	xor    %edx,%eax

    // Strip off uppermost bit because we want a long,
    // not an unsigned long
    return y & RAND_MAX;
 933:	25 ff ff ff 7f       	and    $0x7fffffff,%eax
}
 938:	c3                   	ret    
        if (mti == N+1)   /* if sgenrand() has not been called, */
 939:	3d 71 02 00 00       	cmp    $0x271,%eax
 93e:	0f 84 d4 00 00 00    	je     a18 <genrand+0x128>
    mt[0]= seed & 0xffffffff;
 944:	31 c0                	xor    %eax,%eax
 946:	8d b4 26 00 00 00 00 	lea    0x0(%esi,%eiz,1),%esi
 94d:	8d 76 00             	lea    0x0(%esi),%esi
            y = (mt[kk]&UPPER_MASK)|(mt[kk+1]&LOWER_MASK);
 950:	8b 0c 85 a0 0f 00 00 	mov    0xfa0(,%eax,4),%ecx
 957:	83 c0 01             	add    $0x1,%eax
 95a:	8b 14 85 a0 0f 00 00 	mov    0xfa0(,%eax,4),%edx
 961:	81 e1 00 00 00 80    	and    $0x80000000,%ecx
 967:	81 e2 ff ff ff 7f    	and    $0x7fffffff,%edx
 96d:	09 ca                	or     %ecx,%edx
            mt[kk] = mt[kk+M] ^ (y >> 1) ^ mag01[y & 0x1];
 96f:	89 d1                	mov    %edx,%ecx
 971:	83 e2 01             	and    $0x1,%edx
 974:	d1 e9                	shr    %ecx
 976:	33 0c 85 d0 15 00 00 	xor    0x15d0(,%eax,4),%ecx
 97d:	33 0c 95 48 0c 00 00 	xor    0xc48(,%edx,4),%ecx
 984:	89 0c 85 9c 0f 00 00 	mov    %ecx,0xf9c(,%eax,4)
        for (kk=0;kk<N-M;kk++) {
 98b:	3d e3 00 00 00       	cmp    $0xe3,%eax
 990:	75 be                	jne    950 <genrand+0x60>
 992:	8d b6 00 00 00 00    	lea    0x0(%esi),%esi
            y = (mt[kk]&UPPER_MASK)|(mt[kk+1]&LOWER_MASK);
 998:	8b 0c 85 a0 0f 00 00 	mov    0xfa0(,%eax,4),%ecx
 99f:	83 c0 01             	add    $0x1,%eax
 9a2:	8b 14 85 a0 0f 00 00 	mov    0xfa0(,%eax,4),%edx
 9a9:	81 e1 00 00 00 80    	and    $0x80000000,%ecx
 9af:	81 e2 ff ff ff 7f    	and    $0x7fffffff,%edx
 9b5:	09 ca                	or     %ecx,%edx
            mt[kk] = mt[kk+(M-N)] ^ (y >> 1) ^ mag01[y & 0x1];
 9b7:	89 d1                	mov    %edx,%ecx
 9b9:	83 e2 01             	and    $0x1,%edx
 9bc:	d1 e9                	shr    %ecx
 9be:	33 0c 85 10 0c 00 00 	xor    0xc10(,%eax,4),%ecx
 9c5:	33 0c 95 48 0c 00 00 	xor    0xc48(,%edx,4),%ecx
 9cc:	89 0c 85 9c 0f 00 00 	mov    %ecx,0xf9c(,%eax,4)
        for (;kk<N-1;kk++) {
 9d3:	3d 6f 02 00 00       	cmp    $0x26f,%eax
 9d8:	75 be                	jne    998 <genrand+0xa8>
        y = (mt[N-1]&UPPER_MASK)|(mt[0]&LOWER_MASK);
 9da:	8b 0d a0 0f 00 00    	mov    0xfa0,%ecx
 9e0:	a1 5c 19 00 00       	mov    0x195c,%eax
 9e5:	89 ca                	mov    %ecx,%edx
 9e7:	25 00 00 00 80       	and    $0x80000000,%eax
 9ec:	81 e2 ff ff ff 7f    	and    $0x7fffffff,%edx
 9f2:	09 d0                	or     %edx,%eax
        mt[N-1] = mt[M-1] ^ (y >> 1) ^ mag01[y & 0x1];
 9f4:	89 c2                	mov    %eax,%edx
 9f6:	83 e0 01             	and    $0x1,%eax
 9f9:	d1 ea                	shr    %edx
 9fb:	33 15 d0 15 00 00    	xor    0x15d0,%edx
 a01:	33 14 85 48 0c 00 00 	xor    0xc48(,%eax,4),%edx
 a08:	89 15 5c 19 00 00    	mov    %edx,0x195c
 a0e:	ba 01 00 00 00       	mov    $0x1,%edx
 a13:	e9 ee fe ff ff       	jmp    906 <genrand+0x16>
    mt[0]= seed & 0xffffffff;
 a18:	b8 a4 0f 00 00       	mov    $0xfa4,%eax
 a1d:	b9 5c 19 00 00       	mov    $0x195c,%ecx
 a22:	ba 05 11 00 00       	mov    $0x1105,%edx
 a27:	c7 05 a0 0f 00 00 05 	movl   $0x1105,0xfa0
 a2e:	11 00 00 
    for (mti=1; mti<N; mti++)
 a31:	eb 08                	jmp    a3b <genrand+0x14b>
 a33:	8d 74 26 00          	lea    0x0(%esi,%eiz,1),%esi
 a37:	90                   	nop
 a38:	83 c0 04             	add    $0x4,%eax
        mt[mti] = (69069 * mt[mti-1]) & 0xffffffff;
 a3b:	69 d2 cd 0d 01 00    	imul   $0x10dcd,%edx,%edx
 a41:	89 10                	mov    %edx,(%eax)
    for (mti=1; mti<N; mti++)
 a43:	39 c1                	cmp    %eax,%ecx
 a45:	75 f1                	jne    a38 <genrand+0x148>
 a47:	e9 f8 fe ff ff       	jmp    944 <genrand+0x54>
 a4c:	8d 74 26 00          	lea    0x0(%esi,%eiz,1),%esi

00000a50 <random_at_most>:

// Assumes 0 <= max <= RAND_MAX
// Returns in the half-open interval [0, max]
long random_at_most(long max) {
 a50:	55                   	push   %ebp
  unsigned long
    // max <= RAND_MAX < ULONG_MAX, so this is okay.
    num_bins = (unsigned long) max + 1,
    num_rand = (unsigned long) RAND_MAX + 1,
    bin_size = num_rand / num_bins,
 a51:	31 d2                	xor    %edx,%edx
long random_at_most(long max) {
 a53:	89 e5                	mov    %esp,%ebp
 a55:	56                   	push   %esi
    num_bins = (unsigned long) max + 1,
 a56:	8b 45 08             	mov    0x8(%ebp),%eax
long random_at_most(long max) {
 a59:	53                   	push   %ebx
    bin_size = num_rand / num_bins,
 a5a:	bb 00 00 00 80       	mov    $0x80000000,%ebx
    num_bins = (unsigned long) max + 1,
 a5f:	8d 48 01             	lea    0x1(%eax),%ecx
    bin_size = num_rand / num_bins,
 a62:	89 d8                	mov    %ebx,%eax
 a64:	f7 f1                	div    %ecx
 a66:	89 c6                	mov    %eax,%esi
  long x;
  do {
   x = genrand();
  }
  // This is carefully written not to overflow
  while (num_rand - defect <= (unsigned long)x);
 a68:	29 d3                	sub    %edx,%ebx
 a6a:	8d b6 00 00 00 00    	lea    0x0(%esi),%esi
   x = genrand();
 a70:	e8 7b fe ff ff       	call   8f0 <genrand>
  while (num_rand - defect <= (unsigned long)x);
 a75:	39 d8                	cmp    %ebx,%eax
 a77:	73 f7                	jae    a70 <random_at_most+0x20>

  // Truncated division is intentional
  return x/bin_size;
 a79:	31 d2                	xor    %edx,%edx
}
 a7b:	5b                   	pop    %ebx
  return x/bin_size;
 a7c:	f7 f6                	div    %esi
}
 a7e:	5e                   	pop    %esi
 a7f:	5d                   	pop    %ebp
 a80:	c3                   	ret    
 a81:	8d b4 26 00 00 00 00 	lea    0x0(%esi,%eiz,1),%esi
 a88:	8d b4 26 00 00 00 00 	lea    0x0(%esi,%eiz,1),%esi
 a8f:	90                   	nop

00000a90 <randomrange>:

int randomrange(int low, int high){
 a90:	55                   	push   %ebp
 a91:	89 e5                	mov    %esp,%ebp
 a93:	57                   	push   %edi
 a94:	56                   	push   %esi
 a95:	53                   	push   %ebx
 a96:	83 ec 0c             	sub    $0xc,%esp
 a99:	8b 75 08             	mov    0x8(%ebp),%esi
 a9c:	8b 45 0c             	mov    0xc(%ebp),%eax
  if(high<low){
 a9f:	39 f0                	cmp    %esi,%eax
 aa1:	7d 06                	jge    aa9 <randomrange+0x19>
 aa3:	89 f2                	mov    %esi,%edx
 aa5:	89 c6                	mov    %eax,%esi
 aa7:	89 d0                	mov    %edx,%eax
    int temp=high;
    high=low;
    low=temp;
  }
  int val = random_at_most(high-low) + low;
 aa9:	29 f0                	sub    %esi,%eax
    bin_size = num_rand / num_bins,
 aab:	bb 00 00 00 80       	mov    $0x80000000,%ebx
 ab0:	31 d2                	xor    %edx,%edx
    num_bins = (unsigned long) max + 1,
 ab2:	8d 48 01             	lea    0x1(%eax),%ecx
    bin_size = num_rand / num_bins,
 ab5:	89 d8                	mov    %ebx,%eax
 ab7:	f7 f1                	div    %ecx
 ab9:	89 c7                	mov    %eax,%edi
  while (num_rand - defect <= (unsigned long)x);
 abb:	29 d3                	sub    %edx,%ebx
 abd:	8d 76 00             	lea    0x0(%esi),%esi
   x = genrand();
 ac0:	e8 2b fe ff ff       	call   8f0 <genrand>
  while (num_rand - defect <= (unsigned long)x);
 ac5:	39 d8                	cmp    %ebx,%eax
 ac7:	73 f7                	jae    ac0 <randomrange+0x30>
  return x/bin_size;
 ac9:	31 d2                	xor    %edx,%edx
  return val;
}
 acb:	83 c4 0c             	add    $0xc,%esp
  return x/bin_size;
 ace:	f7 f7                	div    %edi
}
 ad0:	5b                   	pop    %ebx
  int val = random_at_most(high-low) + low;
 ad1:	01 f0                	add    %esi,%eax
}
 ad3:	5e                   	pop    %esi
 ad4:	5f                   	pop    %edi
 ad5:	5d                   	pop    %ebp
 ad6:	c3                   	ret    
